; ModuleID = '9/1377.c'
source_filename = "9/1377.c"
target datalayout = "e-m:e-p270:32:32-p271:32:32-p272:64:64-i64:64-f80:128-n8:16:32:64-S128"
target triple = "x86_64-pc-linux-gnu"

%struct.anon = type { [100 x i32], [100 x [11 x i8]] }

@patient = common dso_local global %struct.anon zeroinitializer, align 4
@ppatient = common dso_local global %struct.anon* null, align 8
@.str = private unnamed_addr constant [3 x i8] c"%d\00", align 1
@.str.1 = private unnamed_addr constant [6 x i8] c"%s %d\00", align 1
@.str.2 = private unnamed_addr constant [4 x i8] c"%s\0A\00", align 1

; Function Attrs: noinline nounwind uwtable
define dso_local i32 @main() #0 {
  %1 = alloca i32, align 4
  %2 = alloca i32, align 4
  %3 = alloca i32, align 4
  %4 = alloca i32, align 4
  %5 = alloca i32, align 4
  %6 = alloca i32, align 4
  %7 = alloca i32, align 4
  %8 = alloca [11 x i8], align 1
  %9 = alloca [100 x [11 x i8]], align 16
  %10 = alloca [100 x i8], align 16
  store i32 0, i32* %1, align 4
  store %struct.anon* @patient, %struct.anon** @ppatient, align 8
  store i32 0, i32* %7, align 4
  %11 = call i32 (i8*, ...) @__isoc99_scanf(i8* getelementptr inbounds ([3 x i8], [3 x i8]* @.str, i64 0, i64 0), i32* %2)
  store i32 0, i32* %3, align 4
  br label %12

12:                                               ; preds = %25, %0
  %13 = load i32, i32* %3, align 4
  %14 = load i32, i32* %2, align 4
  %15 = icmp slt i32 %13, %14
  br i1 %15, label %16, label %28

16:                                               ; preds = %12
  %17 = load i32, i32* %3, align 4
  %18 = sext i32 %17 to i64
  %19 = getelementptr inbounds [100 x [11 x i8]], [100 x [11 x i8]]* getelementptr inbounds (%struct.anon, %struct.anon* @patient, i32 0, i32 1), i64 0, i64 %18
  %20 = getelementptr inbounds [11 x i8], [11 x i8]* %19, i64 0, i64 0
  %21 = load i32, i32* %3, align 4
  %22 = sext i32 %21 to i64
  %23 = getelementptr inbounds [100 x i32], [100 x i32]* getelementptr inbounds (%struct.anon, %struct.anon* @patient, i32 0, i32 0), i64 0, i64 %22
  %24 = call i32 (i8*, ...) @__isoc99_scanf(i8* getelementptr inbounds ([6 x i8], [6 x i8]* @.str.1, i64 0, i64 0), i8* %20, i32* %23)
  br label %25

25:                                               ; preds = %16
  %26 = load i32, i32* %3, align 4
  %27 = add nsw i32 %26, 1
  store i32 %27, i32* %3, align 4
  br label %12

28:                                               ; preds = %12
  store i32 0, i32* %4, align 4
  store i32 0, i32* %3, align 4
  br label %29

29:                                               ; preds = %68, %28
  %30 = load i32, i32* %3, align 4
  %31 = load i32, i32* %2, align 4
  %32 = icmp slt i32 %30, %31
  br i1 %32, label %33, label %71

33:                                               ; preds = %29
  %34 = load %struct.anon*, %struct.anon** @ppatient, align 8
  %35 = getelementptr inbounds %struct.anon, %struct.anon* %34, i32 0, i32 0
  %36 = load i32, i32* %3, align 4
  %37 = sext i32 %36 to i64
  %38 = getelementptr inbounds [100 x i32], [100 x i32]* %35, i64 0, i64 %37
  %39 = load i32, i32* %38, align 4
  %40 = icmp sge i32 %39, 60
  br i1 %40, label %41, label %67

41:                                               ; preds = %33
  %42 = load i32, i32* %4, align 4
  %43 = sext i32 %42 to i64
  %44 = getelementptr inbounds [100 x [11 x i8]], [100 x [11 x i8]]* %9, i64 0, i64 %43
  %45 = getelementptr inbounds [11 x i8], [11 x i8]* %44, i64 0, i64 0
  %46 = load %struct.anon*, %struct.anon** @ppatient, align 8
  %47 = getelementptr inbounds %struct.anon, %struct.anon* %46, i32 0, i32 1
  %48 = load i32, i32* %3, align 4
  %49 = sext i32 %48 to i64
  %50 = getelementptr inbounds [100 x [11 x i8]], [100 x [11 x i8]]* %47, i64 0, i64 %49
  %51 = getelementptr inbounds [11 x i8], [11 x i8]* %50, i64 0, i64 0
  %52 = call i8* @strcpy(i8* %45, i8* %51) #3
  %53 = load %struct.anon*, %struct.anon** @ppatient, align 8
  %54 = getelementptr inbounds %struct.anon, %struct.anon* %53, i32 0, i32 0
  %55 = load i32, i32* %3, align 4
  %56 = sext i32 %55 to i64
  %57 = getelementptr inbounds [100 x i32], [100 x i32]* %54, i64 0, i64 %56
  %58 = load i32, i32* %57, align 4
  %59 = trunc i32 %58 to i8
  %60 = load i32, i32* %4, align 4
  %61 = sext i32 %60 to i64
  %62 = getelementptr inbounds [100 x i8], [100 x i8]* %10, i64 0, i64 %61
  store i8 %59, i8* %62, align 1
  %63 = load i32, i32* %7, align 4
  %64 = add nsw i32 %63, 1
  store i32 %64, i32* %7, align 4
  %65 = load i32, i32* %4, align 4
  %66 = add nsw i32 %65, 1
  store i32 %66, i32* %4, align 4
  br label %67

67:                                               ; preds = %41, %33
  br label %68

68:                                               ; preds = %67
  %69 = load i32, i32* %3, align 4
  %70 = add nsw i32 %69, 1
  store i32 %70, i32* %3, align 4
  br label %29

71:                                               ; preds = %29
  %72 = load i32, i32* %7, align 4
  %73 = sub nsw i32 %72, 1
  store i32 %73, i32* %4, align 4
  br label %74

74:                                               ; preds = %143, %71
  %75 = load i32, i32* %4, align 4
  %76 = icmp sgt i32 %75, 0
  br i1 %76, label %77, label %146

77:                                               ; preds = %74
  store i32 0, i32* %5, align 4
  br label %78

78:                                               ; preds = %139, %77
  %79 = load i32, i32* %5, align 4
  %80 = load i32, i32* %4, align 4
  %81 = icmp slt i32 %79, %80
  br i1 %81, label %82, label %142

82:                                               ; preds = %78
  %83 = load i32, i32* %5, align 4
  %84 = sext i32 %83 to i64
  %85 = getelementptr inbounds [100 x i8], [100 x i8]* %10, i64 0, i64 %84
  %86 = load i8, i8* %85, align 1
  %87 = sext i8 %86 to i32
  %88 = load i32, i32* %5, align 4
  %89 = add nsw i32 %88, 1
  %90 = sext i32 %89 to i64
  %91 = getelementptr inbounds [100 x i8], [100 x i8]* %10, i64 0, i64 %90
  %92 = load i8, i8* %91, align 1
  %93 = sext i8 %92 to i32
  %94 = icmp slt i32 %87, %93
  br i1 %94, label %95, label %138

95:                                               ; preds = %82
  %96 = getelementptr inbounds [11 x i8], [11 x i8]* %8, i64 0, i64 0
  %97 = load i32, i32* %5, align 4
  %98 = add nsw i32 %97, 1
  %99 = sext i32 %98 to i64
  %100 = getelementptr inbounds [100 x [11 x i8]], [100 x [11 x i8]]* %9, i64 0, i64 %99
  %101 = getelementptr inbounds [11 x i8], [11 x i8]* %100, i64 0, i64 0
  %102 = call i8* @strcpy(i8* %96, i8* %101) #3
  %103 = load i32, i32* %5, align 4
  %104 = add nsw i32 %103, 1
  %105 = sext i32 %104 to i64
  %106 = getelementptr inbounds [100 x [11 x i8]], [100 x [11 x i8]]* %9, i64 0, i64 %105
  %107 = getelementptr inbounds [11 x i8], [11 x i8]* %106, i64 0, i64 0
  %108 = load i32, i32* %5, align 4
  %109 = sext i32 %108 to i64
  %110 = getelementptr inbounds [100 x [11 x i8]], [100 x [11 x i8]]* %9, i64 0, i64 %109
  %111 = getelementptr inbounds [11 x i8], [11 x i8]* %110, i64 0, i64 0
  %112 = call i8* @strcpy(i8* %107, i8* %111) #3
  %113 = load i32, i32* %5, align 4
  %114 = sext i32 %113 to i64
  %115 = getelementptr inbounds [100 x [11 x i8]], [100 x [11 x i8]]* %9, i64 0, i64 %114
  %116 = getelementptr inbounds [11 x i8], [11 x i8]* %115, i64 0, i64 0
  %117 = getelementptr inbounds [11 x i8], [11 x i8]* %8, i64 0, i64 0
  %118 = call i8* @strcpy(i8* %116, i8* %117) #3
  %119 = load i32, i32* %5, align 4
  %120 = add nsw i32 %119, 1
  %121 = sext i32 %120 to i64
  %122 = getelementptr inbounds [100 x i8], [100 x i8]* %10, i64 0, i64 %121
  %123 = load i8, i8* %122, align 1
  %124 = sext i8 %123 to i32
  store i32 %124, i32* %6, align 4
  %125 = load i32, i32* %5, align 4
  %126 = sext i32 %125 to i64
  %127 = getelementptr inbounds [100 x i8], [100 x i8]* %10, i64 0, i64 %126
  %128 = load i8, i8* %127, align 1
  %129 = load i32, i32* %5, align 4
  %130 = add nsw i32 %129, 1
  %131 = sext i32 %130 to i64
  %132 = getelementptr inbounds [100 x i8], [100 x i8]* %10, i64 0, i64 %131
  store i8 %128, i8* %132, align 1
  %133 = load i32, i32* %6, align 4
  %134 = trunc i32 %133 to i8
  %135 = load i32, i32* %5, align 4
  %136 = sext i32 %135 to i64
  %137 = getelementptr inbounds [100 x i8], [100 x i8]* %10, i64 0, i64 %136
  store i8 %134, i8* %137, align 1
  br label %138

138:                                              ; preds = %95, %82
  br label %139

139:                                              ; preds = %138
  %140 = load i32, i32* %5, align 4
  %141 = add nsw i32 %140, 1
  store i32 %141, i32* %5, align 4
  br label %78

142:                                              ; preds = %78
  br label %143

143:                                              ; preds = %142
  %144 = load i32, i32* %4, align 4
  %145 = add nsw i32 %144, -1
  store i32 %145, i32* %4, align 4
  br label %74

146:                                              ; preds = %74
  store i32 0, i32* %3, align 4
  br label %147

147:                                              ; preds = %157, %146
  %148 = load i32, i32* %3, align 4
  %149 = load i32, i32* %7, align 4
  %150 = icmp slt i32 %148, %149
  br i1 %150, label %151, label %160

151:                                              ; preds = %147
  %152 = load i32, i32* %3, align 4
  %153 = sext i32 %152 to i64
  %154 = getelementptr inbounds [100 x [11 x i8]], [100 x [11 x i8]]* %9, i64 0, i64 %153
  %155 = getelementptr inbounds [11 x i8], [11 x i8]* %154, i64 0, i64 0
  %156 = call i32 (i8*, ...) @printf(i8* getelementptr inbounds ([4 x i8], [4 x i8]* @.str.2, i64 0, i64 0), i8* %155)
  br label %157

157:                                              ; preds = %151
  %158 = load i32, i32* %3, align 4
  %159 = add nsw i32 %158, 1
  store i32 %159, i32* %3, align 4
  br label %147

160:                                              ; preds = %147
  store i32 0, i32* %3, align 4
  br label %161

161:                                              ; preds = %182, %160
  %162 = load i32, i32* %3, align 4
  %163 = load i32, i32* %2, align 4
  %164 = icmp slt i32 %162, %163
  br i1 %164, label %165, label %185

165:                                              ; preds = %161
  %166 = load %struct.anon*, %struct.anon** @ppatient, align 8
  %167 = getelementptr inbounds %struct.anon, %struct.anon* %166, i32 0, i32 0
  %168 = load i32, i32* %3, align 4
  %169 = sext i32 %168 to i64
  %170 = getelementptr inbounds [100 x i32], [100 x i32]* %167, i64 0, i64 %169
  %171 = load i32, i32* %170, align 4
  %172 = icmp slt i32 %171, 60
  br i1 %172, label %173, label %181

173:                                              ; preds = %165
  %174 = load %struct.anon*, %struct.anon** @ppatient, align 8
  %175 = getelementptr inbounds %struct.anon, %struct.anon* %174, i32 0, i32 1
  %176 = load i32, i32* %3, align 4
  %177 = sext i32 %176 to i64
  %178 = getelementptr inbounds [100 x [11 x i8]], [100 x [11 x i8]]* %175, i64 0, i64 %177
  %179 = getelementptr inbounds [11 x i8], [11 x i8]* %178, i64 0, i64 0
  %180 = call i32 (i8*, ...) @printf(i8* getelementptr inbounds ([4 x i8], [4 x i8]* @.str.2, i64 0, i64 0), i8* %179)
  br label %181

181:                                              ; preds = %173, %165
  br label %182

182:                                              ; preds = %181
  %183 = load i32, i32* %3, align 4
  %184 = add nsw i32 %183, 1
  store i32 %184, i32* %3, align 4
  br label %161

185:                                              ; preds = %161
  ret i32 0
}

declare dso_local i32 @__isoc99_scanf(i8*, ...) #1

; Function Attrs: nounwind
declare dso_local i8* @strcpy(i8*, i8*) #2

declare dso_local i32 @printf(i8*, ...) #1


!llvm.module.flags = !{!0}
!llvm.ident = !{!1}

!0 = !{i32 1, !"wchar_size", i32 4}
!1 = !{!"clang version 10.0.0-4ubuntu1 "}
